target datalayout = "e-m:e-p270:32:32-p271:32:32-p272:64:64-i64:64-i128:128-f80:128-n8:16:32:64-S128"
target triple = "x86_64-pc-linux-gnu"

%class.symbol = type { ptr }
%class.arith_decl_plugin = type <{ %class.decl_plugin.base, [4 x i8], ptr, %class.symbol, %class.symbol, %class.symbol, ptr, ptr, ptr, ptr, ptr, ptr, ptr, ptr, ptr, ptr, ptr, ptr, ptr, ptr, ptr, ptr, ptr, ptr, ptr, ptr, ptr, ptr, ptr, ptr, ptr, ptr, ptr, ptr, ptr, ptr, ptr, ptr, ptr, ptr, ptr, ptr, ptr, ptr, ptr, ptr, ptr, ptr, ptr, ptr, ptr, ptr, %class.ptr_vector, %class.ptr_vector, i8, [7 x i8] }>
%class.decl_plugin.base = type <{ ptr, ptr, i32 }>
%class.ptr_vector = type { %class.vector }
%class.vector = type { ptr }
%class.decl_plugin = type <{ ptr, ptr, i32, [4 x i8] }>
%class.ast_manager = type { %class.reslimit, %class.small_object_allocator, %class.family_manager, %class.parray_manager, %class.dependency_manager, %class.parray_manager.16, %class.ptr_vector.19, i32, i8, %class.ast_table, %class.obj_map, %class.id_gen, %class.id_gen, ptr, ptr, ptr, ptr, ptr, i32, i8, [3 x i8], %class.u_map, ptr, i8, i8, ptr, %class.symbol, %class.obj_map.25, ptr }
%class.reslimit = type { %"struct.std::atomic", i8, i64, i64, %class.svector.3, %class.ptr_vector.5 }
%"struct.std::atomic" = type { %"struct.std::__atomic_base" }
%"struct.std::__atomic_base" = type { i32 }
%class.svector.3 = type { %class.vector.4 }
%class.vector.4 = type { ptr }
%class.ptr_vector.5 = type { %class.vector.6 }
%class.vector.6 = type { ptr }
%class.small_object_allocator = type { [32 x ptr], [32 x ptr], i64 }
%class.family_manager = type { i32, %class.symbol_table, %class.svector.10 }
%class.symbol_table = type { %class.core_hashtable, %class.vector.7, %class.svector.8 }
%class.core_hashtable = type <{ ptr, i32, i32, i32, [4 x i8] }>
%class.vector.7 = type { ptr }
%class.svector.8 = type { %class.vector.9 }
%class.vector.9 = type { ptr }
%class.svector.10 = type { %class.vector.11 }
%class.vector.11 = type { ptr }
%class.parray_manager = type { ptr, ptr, %class.ptr_vector.12, %class.ptr_vector.12 }
%class.ptr_vector.12 = type { %class.vector.13 }
%class.vector.13 = type { ptr }
%class.dependency_manager = type { ptr, ptr, %class.ptr_vector.14 }
%class.ptr_vector.14 = type { %class.vector.15 }
%class.vector.15 = type { ptr }
%class.parray_manager.16 = type { ptr, ptr, %class.ptr_vector.17, %class.ptr_vector.17 }
%class.ptr_vector.17 = type { %class.vector.18 }
%class.vector.18 = type { ptr }
%class.ptr_vector.19 = type { %class.vector.20 }
%class.vector.20 = type { ptr }
%class.ast_table = type { %class.chashtable }
%class.chashtable = type { ptr, i32, i32, i32, i32, i32, i32, i32, ptr, ptr, ptr }
%class.obj_map = type { %class.core_hashtable.21 }
%class.core_hashtable.21 = type <{ ptr, i32, i32, i32, [4 x i8] }>
%class.id_gen = type { i32, %class.svector }
%class.svector = type { %class.vector.0 }
%class.vector.0 = type { ptr }
%class.u_map = type { %class.map }
%class.map = type { %class.table2map }
%class.table2map = type { %class.core_hashtable.23 }
%class.core_hashtable.23 = type <{ ptr, i32, i32, i32, [4 x i8] }>
%class.obj_map.25 = type { %class.core_hashtable.26 }
%class.core_hashtable.26 = type <{ ptr, i32, i32, i32, [4 x i8] }>
%"struct.arith_decl_plugin::algebraic_numbers_wrapper" = type { %class.mpq_manager, %"class.algebraic_numbers::manager", %class.id_gen, %class._scoped_numeral_vector }
%class.mpq_manager = type { %class.mpz_manager, %class.mpz, %class.mpz, %class.mpz, %class.mpz, %class.mpq, %class.mpq }
%class.mpz_manager = type { %class.small_object_allocator, %"class.std::recursive_mutex", [4 x i8], i32, %class.mpz, %class.mpz }
%"class.std::recursive_mutex" = type { %"class.std::__recursive_mutex_base" }
%"class.std::__recursive_mutex_base" = type { %union.pthread_mutex_t }
%union.pthread_mutex_t = type { %struct.__pthread_mutex_s }
%struct.__pthread_mutex_s = type { i32, i32, i32, i32, i32, i16, i16, %struct.__pthread_internal_list }
%struct.__pthread_internal_list = type { ptr, ptr }
%class.mpz = type { i32, i8, ptr }
%class.mpq = type { %class.mpz, %class.mpz }
%"class.algebraic_numbers::manager" = type <{ ptr, ptr, i8, [7 x i8] }>
%class._scoped_numeral_vector = type { %class.svector.1, ptr }
%class.svector.1 = type { %class.vector.2 }
%class.vector.2 = type { ptr }
%class._scoped_numeral = type { ptr, %"class.algebraic_numbers::anum" }
%"class.algebraic_numbers::anum" = type { ptr }

; Function Attrs: mustprogress nounwind uwtable
define linkonce_odr hidden noundef nonnull align 8 dereferenceable(40) ptr @_ZN11ast_manager5limitEv(ptr noundef nonnull align 8 dereferenceable(976) %0) #5 comdat align 2 {
  %2 = alloca ptr, align 8
  store ptr %0, ptr %2, align 8, !tbaa !25
  %3 = load ptr, ptr %2, align 8
  %4 = getelementptr inbounds nuw %class.ast_manager, ptr %3, i32 0, i32 0
  ret ptr %4
}

; Function Attrs: mustprogress nounwind uwtable
define linkonce_odr hidden void @_ZN17algebraic_numbers4anumC2Ev(ptr noundef nonnull align 8 dereferenceable(8) %0) unnamed_addr #5 comdat align 2 {
  %2 = alloca ptr, align 8
  store ptr %0, ptr %2, align 8, !tbaa !31
  %3 = load ptr, ptr %2, align 8
  %4 = getelementptr inbounds nuw %"class.algebraic_numbers::anum", ptr %3, i32 0, i32 0
  store ptr null, ptr %4, align 8, !tbaa !291
  ret void
}

; Function Attrs: mustprogress uwtable
define hidden noundef nonnull align 8 dereferenceable(784) ptr @_ZNK17arith_decl_plugin2awEv(ptr noundef nonnull align 8 dereferenceable(441) %0) #4 align 2 {
  %2 = alloca ptr, align 8
  store ptr %0, ptr %2, align 8, !tbaa !3
  %3 = load ptr, ptr %2, align 8
  %4 = getelementptr inbounds nuw %class.arith_decl_plugin, ptr %3, i32 0, i32 2
  %5 = load ptr, ptr %4, align 8, !tbaa !8
  %6 = icmp eq ptr %5, null
  br i1 %6, label %7, label %13

7:                                                ; preds = %1
  %8 = call noalias noundef ptr @_ZN6memory8allocateEm(i64 noundef 784)
  %9 = getelementptr inbounds nuw %class.decl_plugin, ptr %3, i32 0, i32 1
  %10 = load ptr, ptr %9, align 8, !tbaa !24
  %11 = call noundef nonnull align 8 dereferenceable(40) ptr @_ZN11ast_manager5limitEv(ptr noundef nonnull align 8 dereferenceable(976) %10)
  call void @_ZN17arith_decl_plugin25algebraic_numbers_wrapperC2ER8reslimit(ptr noundef nonnull align 8 dereferenceable(784) %8, ptr noundef nonnull align 8 dereferenceable(40) %11)
  %12 = getelementptr inbounds nuw %class.arith_decl_plugin, ptr %3, i32 0, i32 2
  store ptr %8, ptr %12, align 8, !tbaa !8
  br label %13

13:                                               ; preds = %7, %1
  %14 = getelementptr inbounds nuw %class.arith_decl_plugin, ptr %3, i32 0, i32 2
  %15 = load ptr, ptr %14, align 8, !tbaa !8
  ret ptr %15
}

; Function Attrs: mustprogress nounwind uwtable
define linkonce_odr hidden noundef nonnull align 8 dereferenceable(8) ptr @_ZN15_scoped_numeralIN17algebraic_numbers7managerEEcvRNS0_4anumEEv(ptr noundef nonnull align 8 dereferenceable(16) %0) #5 comdat align 2 {
  %2 = alloca ptr, align 8
  store ptr %0, ptr %2, align 8, !tbaa !121
  %3 = load ptr, ptr %2, align 8
  %4 = getelementptr inbounds nuw %class._scoped_numeral, ptr %3, i32 0, i32 1
  ret ptr %4
}

; Function Attrs: mustprogress uwtable
define linkonce_odr hidden void @_ZN15_scoped_numeralIN17algebraic_numbers7managerEEC2ERS1_(ptr noundef nonnull align 8 dereferenceable(16) %0, ptr noundef nonnull align 8 dereferenceable(17) %1) unnamed_addr #4 comdat align 2 {
  %3 = alloca ptr, align 8
  %4 = alloca ptr, align 8
  store ptr %0, ptr %3, align 8, !tbaa !121
  store ptr %1, ptr %4, align 8, !tbaa !29
  %5 = load ptr, ptr %3, align 8
  %6 = getelementptr inbounds nuw %class._scoped_numeral, ptr %5, i32 0, i32 0
  %7 = load ptr, ptr %4, align 8, !tbaa !29
  store ptr %7, ptr %6, align 8, !tbaa !29
  %8 = getelementptr inbounds nuw %class._scoped_numeral, ptr %5, i32 0, i32 1
  call void @_ZN17algebraic_numbers4anumC2Ev(ptr noundef nonnull align 8 dereferenceable(8) %8)
  ret void
}

; Function Attrs: mustprogress uwtable
define hidden noundef nonnull align 8 dereferenceable(17) ptr @_ZNK17arith_decl_plugin2amEv(ptr noundef nonnull align 8 dereferenceable(441) %0) #4 align 2 {
  %2 = alloca ptr, align 8
  store ptr %0, ptr %2, align 8, !tbaa !3
  %3 = load ptr, ptr %2, align 8
  %4 = call noundef nonnull align 8 dereferenceable(784) ptr @_ZNK17arith_decl_plugin2awEv(ptr noundef nonnull align 8 dereferenceable(441) %3)
  %5 = getelementptr inbounds nuw %"struct.arith_decl_plugin::algebraic_numbers_wrapper", ptr %4, i32 0, i32 1
  ret ptr %5
}

; Function Attrs: mustprogress uwtable
define hidden noundef ptr @_ZN17arith_decl_plugin10mk_numeralEPK5sexprj(ptr noundef nonnull align 8 dereferenceable(441) %0, ptr noundef %1, i32 noundef %2) #4 align 2 personality ptr @__gxx_personality_v0 {
  %4 = alloca ptr, align 8
  %5 = alloca ptr, align 8
  %6 = alloca i32, align 4
  %7 = alloca %class._scoped_numeral, align 8
  %8 = alloca ptr, align 8
  %9 = alloca i32, align 4
  store ptr %0, ptr %4, align 8, !tbaa !3
  store ptr %1, ptr %5, align 8, !tbaa !119
  store i32 %2, ptr %6, align 4, !tbaa !36
  %10 = load ptr, ptr %4, align 8
  call void @llvm.lifetime.start.p0(i64 16, ptr %7) #3
  %11 = call noundef nonnull align 8 dereferenceable(17) ptr @_ZNK17arith_decl_plugin2amEv(ptr noundef nonnull align 8 dereferenceable(441) %10)
  call void @_ZN15_scoped_numeralIN17algebraic_numbers7managerEEC2ERS1_(ptr noundef nonnull align 8 dereferenceable(16) %7, ptr noundef nonnull align 8 dereferenceable(17) %11)
  %12 = invoke noundef nonnull align 8 dereferenceable(17) ptr @_ZNK17arith_decl_plugin2amEv(ptr noundef nonnull align 8 dereferenceable(441) %10)
          to label %13 unwind label %25

13:                                               ; preds = %3
  %14 = load ptr, ptr %5, align 8, !tbaa !119
  %15 = load i32, ptr %6, align 4, !tbaa !36
  %16 = invoke noundef nonnull align 8 dereferenceable(8) ptr @_ZN15_scoped_numeralIN17algebraic_numbers7managerEEcvRNS0_4anumEEv(ptr noundef nonnull align 8 dereferenceable(16) %7)
          to label %17 unwind label %25

17:                                               ; preds = %13
  invoke void @_ZN17algebraic_numbers7manager7mk_rootEPK5sexprjRNS_4anumE(ptr noundef nonnull align 8 dereferenceable(17) %12, ptr noundef %14, i32 noundef %15, ptr noundef nonnull align 8 dereferenceable(8) %16)
          to label %18 unwind label %25

18:                                               ; preds = %17
  %19 = invoke noundef nonnull align 8 dereferenceable(17) ptr @_ZNK17arith_decl_plugin2amEv(ptr noundef nonnull align 8 dereferenceable(441) %10)
          to label %20 unwind label %25

20:                                               ; preds = %18
  %21 = invoke noundef nonnull align 8 dereferenceable(8) ptr @_ZN15_scoped_numeralIN17algebraic_numbers7managerEEcvRNS0_4anumEEv(ptr noundef nonnull align 8 dereferenceable(16) %7)
          to label %22 unwind label %25

22:                                               ; preds = %20
  %23 = invoke noundef ptr @_ZN17arith_decl_plugin10mk_numeralERN17algebraic_numbers7managerERKNS0_4anumEb(ptr noundef nonnull align 8 dereferenceable(441) %10, ptr noundef nonnull align 8 dereferenceable(17) %19, ptr noundef nonnull align 8 dereferenceable(8) %21, i1 noundef zeroext false)
          to label %24 unwind label %25

24:                                               ; preds = %22
  call void @_ZN15_scoped_numeralIN17algebraic_numbers7managerEED2Ev(ptr noundef nonnull align 8 dereferenceable(16) %7) #3
  call void @llvm.lifetime.end.p0(i64 16, ptr %7) #3
  ret ptr %23

25:                                               ; preds = %22, %20, %18, %17, %13, %3
  %26 = landingpad { ptr, i32 }
          cleanup
  %27 = extractvalue { ptr, i32 } %26, 0
  store ptr %27, ptr %8, align 8
  %28 = extractvalue { ptr, i32 } %26, 1
  store i32 %28, ptr %9, align 4
  call void @_ZN15_scoped_numeralIN17algebraic_numbers7managerEED2Ev(ptr noundef nonnull align 8 dereferenceable(16) %7) #3
  call void @llvm.lifetime.end.p0(i64 16, ptr %7) #3
  br label %29

29:                                               ; preds = %25
  %30 = load ptr, ptr %8, align 8
  %31 = load i32, ptr %9, align 4
  %32 = insertvalue { ptr, i32 } poison, ptr %30, 0
  %33 = insertvalue { ptr, i32 } %32, i32 %31, 1
  resume { ptr, i32 } %33
}