; Function Attrs: mustprogress uwtable
define hidden noundef ptr @_ZN17arith_decl_plugin10mk_numeralEPK5sexprj(ptr noundef nonnull align 8 dereferenceable(441) %0, ptr noundef %1, i32 noundef %2) local_unnamed_addr #3 align 2 personality ptr @__gxx_personality_v0 {
  %4 = alloca %class._scoped_numeral, align 8
  call void @llvm.lifetime.start.p0(i64 16, ptr nonnull %4) #24
  %5 = getelementptr inbounds nuw i8, ptr %0, i64 24
  %6 = load ptr, ptr %5, align 8, !tbaa !3
  %7 = icmp eq ptr %6, null
  br i1 %7, label %8, label %12

8:                                                ; preds = %3
  %9 = tail call noalias noundef ptr @_ZN6memory8allocateEm(i64 noundef 784)
  %10 = getelementptr inbounds nuw i8, ptr %0, i64 8
  %11 = load ptr, ptr %10, align 8, !tbaa !22
  tail call void @_ZN17arith_decl_plugin25algebraic_numbers_wrapperC2ER8reslimit(ptr noundef nonnull align 8 dereferenceable(784) %9, ptr noundef nonnull align 8 dereferenceable(40) %11)
  store ptr %9, ptr %5, align 8, !tbaa !3
  br label %12

12:                                               ; preds = %3, %8
  %13 = phi ptr [ %6, %3 ], [ %9, %8 ]
  %14 = getelementptr inbounds nuw i8, ptr %13, i64 728
  store ptr %14, ptr %4, align 8, !tbaa !35
  %15 = getelementptr inbounds nuw i8, ptr %4, i64 8
  store ptr null, ptr %15, align 8, !tbaa !46
  invoke void @_ZN17algebraic_numbers7manager7mk_rootEPK5sexprjRNS_4anumE(ptr noundef nonnull align 8 dereferenceable(17) %14, ptr noundef %1, i32 noundef %2, ptr noundef nonnull align 8 dereferenceable(8) %15)
          to label %16 unwind label %32

16:                                               ; preds = %12
  %17 = load ptr, ptr %5, align 8, !tbaa !3
  %18 = icmp eq ptr %17, null
  br i1 %18, label %19, label %23

19:                                               ; preds = %16
  %20 = invoke noalias noundef ptr @_ZN6memory8allocateEm(i64 noundef 784)
          to label %.noexc6 unwind label %32

.noexc6:                                          ; preds = %19
  %21 = getelementptr inbounds nuw i8, ptr %0, i64 8
  %22 = load ptr, ptr %21, align 8, !tbaa !22
  invoke void @_ZN17arith_decl_plugin25algebraic_numbers_wrapperC2ER8reslimit(ptr noundef nonnull align 8 dereferenceable(784) %20, ptr noundef nonnull align 8 dereferenceable(40) %22)
          to label %.noexc7 unwind label %32

.noexc7:                                          ; preds = %.noexc6
  store ptr %20, ptr %5, align 8, !tbaa !3
  br label %23

23:                                               ; preds = %.noexc7, %16
  %24 = phi ptr [ %20, %.noexc7 ], [ %17, %16 ]
  %25 = getelementptr inbounds nuw i8, ptr %24, i64 728
  %26 = invoke noundef ptr @_ZN17arith_decl_plugin10mk_numeralERN17algebraic_numbers7managerERKNS0_4anumEb(ptr noundef nonnull align 8 dereferenceable(441) %0, ptr noundef nonnull align 8 dereferenceable(17) %25, ptr noundef nonnull align 8 dereferenceable(8) %15, i1 noundef zeroext false)
          to label %27 unwind label %32

27:                                               ; preds = %23
  %28 = load ptr, ptr %4, align 8, !tbaa !131
  invoke void @_ZN17algebraic_numbers7manager3delERNS_4anumE(ptr noundef nonnull align 8 dereferenceable(17) %28, ptr noundef nonnull align 8 dereferenceable(8) %15)
          to label %_ZN15_scoped_numeralIN17algebraic_numbers7managerEED2Ev.exit unwind label %29

29:                                               ; preds = %27
  %30 = landingpad { ptr, i32 }
          catch ptr null
  %31 = extractvalue { ptr, i32 } %30, 0
  call void @__clang_call_terminate(ptr %31) #25
  unreachable

_ZN15_scoped_numeralIN17algebraic_numbers7managerEED2Ev.exit: ; preds = %27
  call void @llvm.lifetime.end.p0(i64 16, ptr nonnull %4) #24
  ret ptr %26

32:                                               ; preds = %.noexc6, %19, %23, %12
  %33 = landingpad { ptr, i32 }
          cleanup
  call void @_ZN15_scoped_numeralIN17algebraic_numbers7managerEED2Ev(ptr noundef nonnull align 8 dereferenceable(16) %4) #24
  call void @llvm.lifetime.end.p0(i64 16, ptr nonnull %4) #24
  resume { ptr, i32 } %33
}